target datalayout = "e-m:e-p270:32:32-p271:32:32-p272:64:64-i64:64-i128:128-f80:128-n8:16:32:64-S128"
target triple = "x86_64-pc-linux-gnu"

%struct._GSList = type { ptr, ptr }
%struct._GPtrArray = type { ptr, i32 }

; Function Attrs: null_pointer_is_valid sspstrong uwtable
define internal zeroext i1 @df_func_ip_is_any(ptr noundef %0, i32 noundef %1, ptr noundef %2, ptr noundef %3) #0 {
  %5 = alloca i1, align 1
  %6 = alloca ptr, align 8
  %7 = alloca i32, align 4
  %8 = alloca ptr, align 8
  %9 = alloca ptr, align 8
  %10 = alloca ptr, align 8
  %11 = alloca ptr, align 8
  %12 = alloca i32, align 4
  %13 = alloca i32, align 4
  store ptr %0, ptr %6, align 8
  store i32 %1, ptr %7, align 4
  store ptr %2, ptr %8, align 8
  store ptr %3, ptr %9, align 8
  call void @llvm.lifetime.start.p0(i64 8, ptr %10) #8
  call void @llvm.lifetime.start.p0(i64 8, ptr %11) #8
  br label %14

14:                                               ; preds = %4
  br label %15

15:                                               ; preds = %14
  br label %16

16:                                               ; preds = %15
  %17 = load ptr, ptr %6, align 8
  %18 = getelementptr inbounds nuw %struct._GSList, ptr %17, i32 0, i32 0
  %19 = load ptr, ptr %18, align 8
  store ptr %19, ptr %10, align 8
  %20 = load ptr, ptr %10, align 8
  %21 = icmp eq ptr %20, null
  br i1 %21, label %22, label %23

22:                                               ; preds = %16
  store i1 false, ptr %5, align 1
  store i32 1, ptr %12, align 4
  br label %53

23:                                               ; preds = %16
  call void @llvm.lifetime.start.p0(i64 4, ptr %13) #8
  store i32 0, ptr %13, align 4
  br label %24

24:                                               ; preds = %46, %23
  %25 = load i32, ptr %13, align 4
  %26 = load ptr, ptr %10, align 8
  %27 = getelementptr inbounds nuw %struct._GPtrArray, ptr %26, i32 0, i32 1
  %28 = load i32, ptr %27, align 8
  %29 = icmp ult i32 %25, %28
  br i1 %29, label %31, label %30

30:                                               ; preds = %24
  store i32 4, ptr %12, align 4
  call void @llvm.lifetime.end.p0(i64 4, ptr %13) #8
  br label %49

31:                                               ; preds = %24
  %32 = call ptr @fvalue_new(i32 noundef 2)
  store ptr %32, ptr %11, align 8
  %33 = load ptr, ptr %11, align 8
  %34 = load ptr, ptr %9, align 8
  %35 = load ptr, ptr %10, align 8
  %36 = getelementptr inbounds nuw %struct._GPtrArray, ptr %35, i32 0, i32 0
  %37 = load ptr, ptr %36, align 8
  %38 = load i32, ptr %13, align 4
  %39 = zext i32 %38 to i64
  %40 = getelementptr ptr, ptr %37, i64 %39
  %41 = load ptr, ptr %40, align 8
  %42 = call zeroext i1 %34(ptr noundef %41)
  %43 = zext i1 %42 to i64
  call void @fvalue_set_uinteger64(ptr noundef %33, i64 noundef %43)
  %44 = load ptr, ptr %8, align 8
  %45 = load ptr, ptr %11, align 8
  call void @df_cell_append(ptr noundef %44, ptr noundef %45)
  br label %46

46:                                               ; preds = %31
  %47 = load i32, ptr %13, align 4
  %48 = add i32 %47, 1
  store i32 %48, ptr %13, align 4
  br label %24, !llvm.loop !11

49:                                               ; preds = %30
  %50 = load ptr, ptr %8, align 8
  %51 = call zeroext i1 @df_cell_is_empty(ptr noundef %50)
  %52 = xor i1 %51, true
  store i1 %52, ptr %5, align 1
  store i32 1, ptr %12, align 4
  br label %53

53:                                               ; preds = %49, %22
  call void @llvm.lifetime.end.p0(i64 8, ptr %11) #8
  call void @llvm.lifetime.end.p0(i64 8, ptr %10) #8
  %54 = load i1, ptr %5, align 1
  ret i1 %54
}

; Function Attrs: null_pointer_is_valid sspstrong uwtable
define internal zeroext i1 @df_func_ip_is_multicast(ptr noundef %0, i32 noundef %1, ptr noundef %2) #0 {
  %4 = alloca ptr, align 8
  %5 = alloca i32, align 4
  %6 = alloca ptr, align 8
  store ptr %0, ptr %4, align 8
  store i32 %1, ptr %5, align 4
  store ptr %2, ptr %6, align 8
  %7 = load ptr, ptr %4, align 8
  %8 = load i32, ptr %5, align 4
  %9 = load ptr, ptr %6, align 8
  %10 = call zeroext i1 @df_func_ip_is_any(ptr noundef %7, i32 noundef %8, ptr noundef %9, ptr noundef @ip_is_multicast)
  ret i1 %10
}