; Function Attrs: null_pointer_is_valid sspstrong uwtable
define internal zeroext i1 @df_func_ip_is_multicast(ptr noundef readonly captures(none) %0, i32 %1, ptr noundef %2) #0 {
  %.val = load ptr, ptr %0, align 8
  %4 = icmp eq ptr %.val, null
  br i1 %4, label %df_func_ip_is_any.exit, label %.preheader.i

.preheader.i:                                     ; preds = %3
  %5 = getelementptr inbounds nuw i8, ptr %.val, i64 8
  %6 = load i32, ptr %5, align 8
  %.not.i = icmp eq i32 %6, 0
  br i1 %.not.i, label %._crit_edge.i, label %.lr.ph.i

._crit_edge.i:                                    ; preds = %ip_is_multicast.exit, %.preheader.i
  %7 = tail call zeroext i1 @df_cell_is_empty(ptr noundef %2)
  %8 = xor i1 %7, true
  br label %df_func_ip_is_any.exit

.lr.ph.i:                                         ; preds = %.preheader.i, %ip_is_multicast.exit
  %indvars.iv.i = phi i64 [ %indvars.iv.next.i, %ip_is_multicast.exit ], [ 0, %.preheader.i ]
  %9 = tail call ptr @fvalue_new(i32 noundef 2)
  %10 = load ptr, ptr %.val, align 8
  %11 = getelementptr ptr, ptr %10, i64 %indvars.iv.i
  %12 = load ptr, ptr %11, align 8
  %13 = tail call i32 @fvalue_type_ftenum(ptr noundef %12)
  switch i32 %13, label %22 [
    i32 32, label %14
    i32 33, label %19
  ]

14:                                               ; preds = %.lr.ph.i
  %15 = tail call ptr @fvalue_get_ipv4(ptr noundef %12)
  %16 = load i32, ptr %15, align 4
  %17 = and i32 %16, -268435456
  %18 = icmp eq i32 %17, -536870912
  br label %ip_is_multicast.exit

19:                                               ; preds = %.lr.ph.i
  %20 = tail call ptr @fvalue_get_ipv6(ptr noundef %12)
  %.val.i = load i8, ptr %20, align 1
  %21 = icmp eq i8 %.val.i, -1
  br label %ip_is_multicast.exit

22:                                               ; preds = %.lr.ph.i
  tail call void (ptr, i32, ptr, i64, ptr, ptr, ...) @ws_log_fatal_full(ptr noundef nonnull @.str.2, i32 noundef 7, ptr noundef nonnull @.str.3, i64 noundef 131, ptr noundef nonnull @__func__.ip_is_multicast, ptr noundef nonnull @.str.4) #7
  unreachable

ip_is_multicast.exit:                             ; preds = %14, %19
  %.0.i = phi i1 [ %21, %19 ], [ %18, %14 ]
  %23 = zext i1 %.0.i to i64
  tail call void @fvalue_set_uinteger64(ptr noundef %9, i64 noundef %23)
  tail call void @df_cell_append(ptr noundef %2, ptr noundef %9)
  %indvars.iv.next.i = add nuw nsw i64 %indvars.iv.i, 1
  %24 = load i32, ptr %5, align 8
  %25 = zext i32 %24 to i64
  %26 = icmp samesign ult i64 %indvars.iv.next.i, %25
  br i1 %26, label %.lr.ph.i, label %._crit_edge.i, !llvm.loop !11

df_func_ip_is_any.exit:                           ; preds = %3, %._crit_edge.i
  %.012.i = phi i1 [ %8, %._crit_edge.i ], [ false, %3 ]
  ret i1 %.012.i
}